; Function Attrs: mustprogress uwtable
define hidden void @_ZN4lean15replace_visitor13visit_bindingERKNS_4exprE(ptr dead_on_unwind noalias writable sret(%"class.lean::expr") align 8 %0, ptr noundef nonnull align 8 dereferenceable(64) %1, ptr noundef nonnull align 8 dereferenceable(8) %2) unnamed_addr #0 align 2 personality ptr @__gxx_personality_v0 {
  %4 = alloca %"class.lean::expr", align 8
  %5 = alloca %"class.lean::expr", align 8
  call void @llvm.lifetime.start.p0(i64 8, ptr nonnull %4) #14
  %6 = load ptr, ptr %2, align 8, !tbaa !3
  %7 = getelementptr inbounds nuw i8, ptr %6, i64 16
  %8 = load ptr, ptr %1, align 8, !tbaa !12
  %9 = getelementptr inbounds nuw i8, ptr %8, i64 104
  %10 = load ptr, ptr %9, align 8
  call void %10(ptr dead_on_unwind nonnull writable sret(%"class.lean::expr") align 8 %4, ptr noundef nonnull align 8 dereferenceable(64) %1, ptr noundef nonnull align 8 dereferenceable(8) %7)
  call void @llvm.lifetime.start.p0(i64 8, ptr nonnull %5) #14
  %11 = load ptr, ptr %2, align 8, !tbaa !3
  %12 = getelementptr inbounds nuw i8, ptr %11, i64 24
  %13 = load ptr, ptr %1, align 8, !tbaa !12
  %14 = getelementptr inbounds nuw i8, ptr %13, i64 104
  %15 = load ptr, ptr %14, align 8
  invoke void %15(ptr dead_on_unwind nonnull writable sret(%"class.lean::expr") align 8 %5, ptr noundef nonnull align 8 dereferenceable(64) %1, ptr noundef nonnull align 8 dereferenceable(8) %12)
          to label %16 unwind label %44

16:                                               ; preds = %3
  invoke void @_ZN4lean14update_bindingERKNS_4exprES2_S2_(ptr dead_on_unwind writable sret(%"class.lean::expr") align 8 %0, ptr noundef nonnull align 8 dereferenceable(8) %2, ptr noundef nonnull align 8 dereferenceable(8) %4, ptr noundef nonnull align 8 dereferenceable(8) %5)
          to label %17 unwind label %46

17:                                               ; preds = %16
  %18 = load ptr, ptr %5, align 8, !tbaa !3
  %19 = ptrtoint ptr %18 to i64
  %20 = and i64 %19, 1
  %.not.i.i = icmp eq i64 %20, 0
  br i1 %.not.i.i, label %21, label %_ZN4lean10object_refD2Ev.exit

21:                                               ; preds = %17
  %22 = load i32, ptr %18, align 4, !tbaa !8
  %23 = icmp sgt i32 %22, 1
  br i1 %23, label %24, label %26, !prof !11

24:                                               ; preds = %21
  %25 = add nsw i32 %22, -1
  store i32 %25, ptr %18, align 4, !tbaa !8
  br label %_ZN4lean10object_refD2Ev.exit

26:                                               ; preds = %21
  %.not.i.i.i = icmp eq i32 %22, 0
  br i1 %.not.i.i.i, label %_ZN4lean10object_refD2Ev.exit, label %27

27:                                               ; preds = %26
  invoke void @lean_dec_ref_cold(ptr noundef nonnull %18)
          to label %_ZN4lean10object_refD2Ev.exit unwind label %28

28:                                               ; preds = %27
  %29 = landingpad { ptr, i32 }
          catch ptr null
  %30 = extractvalue { ptr, i32 } %29, 0
  call void @__clang_call_terminate(ptr %30) #15
  unreachable

_ZN4lean10object_refD2Ev.exit:                    ; preds = %17, %24, %26, %27
  call void @llvm.lifetime.end.p0(i64 8, ptr nonnull %5) #14
  %31 = load ptr, ptr %4, align 8, !tbaa !3
  %32 = ptrtoint ptr %31 to i64
  %33 = and i64 %32, 1
  %.not.i.i7 = icmp eq i64 %33, 0
  br i1 %.not.i.i7, label %34, label %_ZN4lean10object_refD2Ev.exit9

34:                                               ; preds = %_ZN4lean10object_refD2Ev.exit
  %35 = load i32, ptr %31, align 4, !tbaa !8
  %36 = icmp sgt i32 %35, 1
  br i1 %36, label %37, label %39, !prof !11

37:                                               ; preds = %34
  %38 = add nsw i32 %35, -1
  store i32 %38, ptr %31, align 4, !tbaa !8
  br label %_ZN4lean10object_refD2Ev.exit9

39:                                               ; preds = %34
  %.not.i.i.i8 = icmp eq i32 %35, 0
  br i1 %.not.i.i.i8, label %_ZN4lean10object_refD2Ev.exit9, label %40

40:                                               ; preds = %39
  invoke void @lean_dec_ref_cold(ptr noundef nonnull %31)
          to label %_ZN4lean10object_refD2Ev.exit9 unwind label %41

41:                                               ; preds = %40
  %42 = landingpad { ptr, i32 }
          catch ptr null
  %43 = extractvalue { ptr, i32 } %42, 0
  call void @__clang_call_terminate(ptr %43) #15
  unreachable

_ZN4lean10object_refD2Ev.exit9:                   ; preds = %_ZN4lean10object_refD2Ev.exit, %37, %39, %40
  call void @llvm.lifetime.end.p0(i64 8, ptr nonnull %4) #14
  ret void

44:                                               ; preds = %3
  %45 = landingpad { ptr, i32 }
          cleanup
  br label %48

46:                                               ; preds = %16
  %47 = landingpad { ptr, i32 }
          cleanup
  call void @_ZN4lean10object_refD2Ev(ptr noundef nonnull align 8 dereferenceable(8) %5) #14
  br label %48

48:                                               ; preds = %46, %44
  %.pn = phi { ptr, i32 } [ %47, %46 ], [ %45, %44 ]
  call void @llvm.lifetime.end.p0(i64 8, ptr nonnull %5) #14
  call void @_ZN4lean10object_refD2Ev(ptr noundef nonnull align 8 dereferenceable(8) %4) #14
  call void @llvm.lifetime.end.p0(i64 8, ptr nonnull %4) #14
  resume { ptr, i32 } %.pn
}